target datalayout = "e-m:e-p270:32:32-p271:32:32-p272:64:64-i64:64-i128:128-f80:128-n8:16:32:64-S128"
target triple = "x86_64-pc-linux-gnu"

%struct.ossl_param_st = type { ptr, i32, ptr, i64, i64 }

@.str = private unnamed_addr constant [27 x i8] c"../openssl/fuzz/provider.c\00", align 1

; Function Attrs: nounwind uwtable
define internal void @free_params(ptr noundef %0) #0 {
  %2 = alloca ptr, align 8
  store ptr %0, ptr %2, align 8, !tbaa !43
  br label %3

3:                                                ; preds = %28, %1
  %4 = load ptr, ptr %2, align 8, !tbaa !43
  %5 = icmp ne ptr %4, null
  br i1 %5, label %6, label %11

6:                                                ; preds = %3
  %7 = load ptr, ptr %2, align 8, !tbaa !43
  %8 = getelementptr inbounds nuw %struct.ossl_param_st, ptr %7, i32 0, i32 0
  %9 = load ptr, ptr %8, align 8, !tbaa !66
  %10 = icmp ne ptr %9, null
  br label %11

11:                                               ; preds = %6, %3
  %12 = phi i1 [ false, %3 ], [ %10, %6 ]
  br i1 %12, label %13, label %31

13:                                               ; preds = %11
  %14 = load ptr, ptr %2, align 8, !tbaa !43
  %15 = getelementptr inbounds nuw %struct.ossl_param_st, ptr %14, i32 0, i32 1
  %16 = load i32, ptr %15, align 8, !tbaa !72
  switch i32 %16, label %27 [
    i32 1, label %17
    i32 2, label %17
    i32 3, label %17
  ]

17:                                               ; preds = %13, %13, %13
  %18 = load ptr, ptr %2, align 8, !tbaa !43
  %19 = getelementptr inbounds nuw %struct.ossl_param_st, ptr %18, i32 0, i32 2
  %20 = load ptr, ptr %19, align 8, !tbaa !75
  %21 = icmp ne ptr %20, null
  br i1 %21, label %22, label %26

22:                                               ; preds = %17
  %23 = load ptr, ptr %2, align 8, !tbaa !43
  %24 = getelementptr inbounds nuw %struct.ossl_param_st, ptr %23, i32 0, i32 2
  %25 = load ptr, ptr %24, align 8, !tbaa !75
  call void @CRYPTO_free(ptr noundef %25, ptr noundef @.str, i32 noundef 257)
  br label %26

26:                                               ; preds = %22, %17
  br label %27

27:                                               ; preds = %13, %26
  br label %28

28:                                               ; preds = %27
  %29 = load ptr, ptr %2, align 8, !tbaa !43
  %30 = getelementptr inbounds nuw %struct.ossl_param_st, ptr %29, i32 1
  store ptr %30, ptr %2, align 8, !tbaa !43
  br label %3, !llvm.loop !82

31:                                               ; preds = %11
  ret void
}