; Function Attrs: nounwind uwtable
define internal fastcc void @free_params(ptr noundef readonly captures(address_is_null) %0) unnamed_addr #0 {
  %.not9 = icmp eq ptr %0, null
  br i1 %.not9, label %.critedge, label %.lr.ph.preheader

.lr.ph.preheader:                                 ; preds = %1
  %2 = load ptr, ptr %0, align 8, !tbaa !34
  %.not712 = icmp eq ptr %2, null
  br i1 %.not712, label %.critedge, label %.lr.ph14

.lr.ph14:                                         ; preds = %.lr.ph.preheader, %.lr.ph
  %.01013 = phi ptr [ %9, %.lr.ph ], [ %0, %.lr.ph.preheader ]
  %3 = getelementptr inbounds nuw i8, ptr %.01013, i64 8
  %4 = load i32, ptr %3, align 8, !tbaa !37
  %.off = add i32 %4, -1
  %switch = icmp ult i32 %.off, 3
  br i1 %switch, label %5, label %.lr.ph

5:                                                ; preds = %.lr.ph14
  %6 = getelementptr inbounds nuw i8, ptr %.01013, i64 16
  %7 = load ptr, ptr %6, align 8, !tbaa !41
  %.not8 = icmp eq ptr %7, null
  br i1 %.not8, label %.lr.ph, label %8

8:                                                ; preds = %5
  tail call void @CRYPTO_free(ptr noundef nonnull %7, ptr noundef nonnull @.str, i32 noundef 257) #6
  br label %.lr.ph

.lr.ph:                                           ; preds = %.lr.ph14, %8, %5
  %9 = getelementptr inbounds nuw i8, ptr %.01013, i64 40
  %10 = load ptr, ptr %9, align 8, !tbaa !34
  %.not7 = icmp eq ptr %10, null
  br i1 %.not7, label %.critedge, label %.lr.ph14

.critedge:                                        ; preds = %.lr.ph, %.lr.ph.preheader, %1
  ret void
}